; Function Attrs: nounwind sspstrong uwtable
define dso_local noundef ptr @cpu_by_arch_id(i64 noundef %0) local_unnamed_addr #0 {
  %2 = load atomic i64, ptr @cpus_queue monotonic, align 8
  tail call void asm sideeffect "", "~{memory},~{dirflag},~{fpsr},~{flags}"() #12, !srcloc !4
  %.not16 = icmp eq i64 %2, 0
  br i1 %.not16, label %._crit_edge, label %.lr.ph

.lr.ph:                                           ; preds = %1, %8
  %.01217.in = phi i64 [ %10, %8 ], [ %2, %1 ]
  %.01217 = inttoptr i64 %.01217.in to ptr
  %3 = tail call ptr @object_get_class(ptr noundef nonnull %.01217) #12
  %4 = tail call ptr @object_class_dynamic_cast_assert(ptr noundef %3, ptr noundef nonnull @.str.3, ptr noundef nonnull @.str.4, i32 noundef 67, ptr noundef nonnull @__func__.CPU_GET_CLASS) #12
  %5 = getelementptr inbounds nuw i8, ptr %4, i64 240
  %6 = load ptr, ptr %5, align 8
  %7 = tail call i64 %6(ptr noundef nonnull %.01217) #12
  %.not14 = icmp eq i64 %7, %0
  br i1 %.not14, label %._crit_edge, label %8

8:                                                ; preds = %.lr.ph
  %9 = getelementptr inbounds nuw i8, ptr %.01217, i64 560
  %10 = load atomic i64, ptr %9 monotonic, align 16
  tail call void asm sideeffect "", "~{memory},~{dirflag},~{fpsr},~{flags}"() #12, !srcloc !5
  %.not = icmp eq i64 %10, 0
  br i1 %.not, label %._crit_edge, label %.lr.ph, !llvm.loop !6

._crit_edge:                                      ; preds = %.lr.ph, %8, %1
  %.2 = phi ptr [ null, %1 ], [ null, %8 ], [ %.01217, %.lr.ph ]
  ret ptr %.2
}